; Function Attrs: nofree norecurse nosync nounwind memory(argmem: write) uwtable
define internal void @dc_129_32x32_c(ptr noundef writeonly captures(none) %0, i64 noundef %1, ptr readnone captures(none) %2, ptr readnone captures(none) %3) #5 {
  %5 = lshr i64 %1, 1
  br label %6

6:                                                ; preds = %4, %6
  %.023 = phi i32 [ 0, %4 ], [ %15, %6 ]
  %.02122 = phi ptr [ %0, %4 ], [ %14, %6 ]
  store i64 576751027802408961, ptr %.02122, align 8, !tbaa !12
  %7 = getelementptr inbounds nuw i8, ptr %.02122, i64 8
  store i64 576751027802408961, ptr %7, align 8, !tbaa !12
  %8 = getelementptr inbounds nuw i8, ptr %.02122, i64 16
  store i64 576751027802408961, ptr %8, align 8, !tbaa !12
  %9 = getelementptr inbounds nuw i8, ptr %.02122, i64 24
  store i64 576751027802408961, ptr %9, align 8, !tbaa !12
  %10 = getelementptr inbounds nuw i8, ptr %.02122, i64 32
  store i64 576751027802408961, ptr %10, align 8, !tbaa !12
  %11 = getelementptr inbounds nuw i8, ptr %.02122, i64 40
  store i64 576751027802408961, ptr %11, align 8, !tbaa !12
  %12 = getelementptr inbounds nuw i8, ptr %.02122, i64 48
  store i64 576751027802408961, ptr %12, align 8, !tbaa !12
  %13 = getelementptr inbounds nuw i8, ptr %.02122, i64 56
  store i64 576751027802408961, ptr %13, align 8, !tbaa !12
  %14 = getelementptr inbounds nuw i16, ptr %.02122, i64 %5
  %15 = add nuw nsw i32 %.023, 1
  %exitcond.not = icmp eq i32 %15, 32
  br i1 %exitcond.not, label %16, label %6, !llvm.loop !24

16:                                               ; preds = %6
  ret void
}